CCS PCH C Compiler, Version 5.008, 5967               12-jun.-19 19:05

               Filename:   C:\Users\padul\Desktop\GitHub\SMP\Impacto\impacto.lst

               ROM used:   282 bytes (1%)
                           Largest free fragment is 30434
               RAM used:   5 (0%) at main() level
                           6 (0%) worst case
               Stack used: 3 locations
               Stack size: 31

*
0800:  GOTO   08F4
.................... #include "tarjeta.h"  
.................... #ifndef _TARJETA_ 
.................... #define _TARJETA_ 
....................  
.................... #include <18F4550.h> 
.................... //////// Standard Header file for the PIC18F4550 device //////////////// 
.................... #device PIC18F4550 
....................  
.................... #list 
....................  
....................  
.................... #fuses USBDIV, CPUDIV1, PLL5, HSPLL, NOFCMEN, NOIESO, VREGEN, BORV21, BROWNOUT, NOPUT, WDT32768, NOWDT 
.................... #fuses MCLR, NOLPT1OSC, NOPBADEN, CCP2C1, NODEBUG, NOXINST, NOICPRT, NOLVP, STVREN, NOPROTECT, NOCPD 
.................... #fuses NOCPB, NOWRT, NOWRTD, WRTB, NOWRTC, NOEBTR, NOEBTRB 
....................  
.................... /*********************************************************** 
....................       EVITAMOS LA ZONA DE MEMORIA ASIGNADA AL MONITOR 
.................... ***********************************************************/ 
....................  
.................... #define LOADER_END   0x7FF 
.................... #define LOADER_SIZE   0x6FF 
....................  
.................... #build(reset=LOADER_END+1, interrupt=LOADER_END+9) 
.................... #org 0, LOADER_END {} 
.................... //#org 0x82A, 0x7FFF 
....................  
....................  
.................... /*********************************************************** 
....................            FUNCIONES PARA MOVER LOS MOTORES 
.................... MX_H() : Mueve el motor en sentido horario 
.................... MX_A() : Mueve el motor en sentido anti-horario 
.................... MX_P() : Para el motor 
.................... ***********************************************************/ 
....................  
.................... void M1_A(){ 
....................    output_high(PIN_A1); 
....................    output_high(PIN_D7); 
....................    output_low(PIN_D6); 
.................... } 
....................  
.................... void M1_H(){ 
....................    output_high(PIN_A1); 
....................    output_low(PIN_D7); 
....................    output_high(PIN_D6); 
.................... } 
....................  
.................... void M1_P(){ 
....................    output_high(PIN_A1); 
*
0882:  BCF    F92.1
0884:  BSF    F89.1
....................    output_low(PIN_D7); 
0886:  BCF    F95.7
0888:  BCF    F8C.7
....................    output_low(PIN_D6); 
088A:  BCF    F95.6
088C:  BCF    F8C.6
088E:  GOTO   08A4 (RETURN)
.................... } 
....................  
.................... void M2_A(){ 
....................    output_high(PIN_A0); 
....................    output_high(PIN_C2); 
....................    output_low(PIN_D5); 
.................... } 
....................  
.................... void M2_H(){ 
....................    output_high(PIN_A0); 
....................    output_low(PIN_C2); 
....................    output_high(PIN_D5); 
.................... } 
....................  
.................... void M2_P(){ 
....................    output_high(PIN_A0); 
0892:  BCF    F92.0
0894:  BSF    F89.0
....................    output_low(PIN_C2); 
0896:  BCF    F94.2
0898:  BCF    F8B.2
....................    output_low(PIN_D5); 
089A:  BCF    F95.5
089C:  BCF    F8C.5
089E:  GOTO   08A6 (RETURN)
.................... } 
....................  
.................... void M3_A(){ 
....................    output_high(PIN_A2); 
*
08A8:  BCF    F92.2
08AA:  BSF    F89.2
....................    output_low(PIN_B2); 
08AC:  BCF    F93.2
08AE:  BCF    F8A.2
....................    output_high(PIN_E0); 
08B0:  BCF    F96.0
08B2:  BSF    F8D.0
08B4:  GOTO   08CA (RETURN)
.................... } 
....................  
.................... void M3_H(){ 
....................    output_high(PIN_A2); 
*
0832:  BCF    F92.2
0834:  BSF    F89.2
....................    output_high(PIN_B2); 
0836:  BCF    F93.2
0838:  BSF    F8A.2
....................    output_low(PIN_E0); 
083A:  BCF    F96.0
083C:  BCF    F8D.0
083E:  GOTO   0854 (RETURN)
.................... } 
....................  
.................... void M3_P(){ 
....................    output_high(PIN_A2); 
....................    output_low(PIN_B2); 
....................    output_low(PIN_E0); 
.................... } 
....................  
.................... void M4_A(){ 
....................    output_high(PIN_A3); 
*
08B8:  BCF    F92.3
08BA:  BSF    F89.3
....................    output_low(PIN_E2); 
08BC:  BCF    F96.2
08BE:  BCF    F8D.2
....................    output_high(PIN_E1); 
08C0:  BCF    F96.1
08C2:  BSF    F8D.1
08C4:  GOTO   08CC (RETURN)
.................... } 
....................  
.................... void M4_H(){ 
....................    output_high(PIN_A3); 
*
0842:  BCF    F92.3
0844:  BSF    F89.3
....................    output_high(PIN_E2); 
0846:  BCF    F96.2
0848:  BSF    F8D.2
....................    output_low(PIN_E1); 
084A:  BCF    F96.1
084C:  BCF    F8D.1
084E:  GOTO   0856 (RETURN)
.................... } 
....................  
.................... void M4_P(){ 
....................    output_high(PIN_A3); 
....................    output_low(PIN_E2); 
....................    output_low(PIN_E1); 
.................... } 
....................  
....................  
.................... /*********************************************************** 
....................             MACRO PARA LEER EL PULSADOR P2 
.................... ***********************************************************/ 
....................  
.................... #define P2   (!input(PIN_B4)) 
....................  
.................... /*********************************************************** 
....................               MACROS PARA MANEJAR EL LED 
.................... ***********************************************************/ 
....................  
.................... #define led_on()   output_high(PIN_A5) 
.................... #define led_off()   output_low(PIN_A5) 
....................  
.................... /*********************************************************** 
....................            DEFINICION DE LAS E/S DIRECTAS 
.................... ***********************************************************/ 
....................  
.................... #define ES0   PIN_A4 
.................... #define ES1   PIN_B3 
.................... #define ES2   PIN_B5 
.................... #define ES3   PIN_B6 
.................... #define ES4   PIN_B7 
.................... #define ES5   PIN_C7 
.................... #define ES6   PIN_C6 
.................... #define ES7   PIN_C1 
.................... #define ES8   PIN_C0 
....................  
.................... /*********************************************************** 
....................         MACROS PARA LEER LOS SENSORES FIJOS INX 
.................... ***********************************************************/ 
....................  
.................... #define IN1      input(PIN_D0) 
.................... #define IN2      input(PIN_D1) 
.................... #define IN3      input(PIN_D2) 
.................... #define IN4      input(PIN_D3) 
.................... #define IN5      input(PIN_D4) 
.................... //IN6 ES UNA E/S CONFIGURABLE 
.................... //#define IN6      input(ES0) 
.................... //#define IN6      input(ES1) 
.................... // ... O CUALQUIER OTRA E/S DIRECTA 
....................  
.................... /*********************************************************** 
....................             DIRECTIVA PARA EL USO DEL I2C 
.................... ***********************************************************/ 
.................... #use I2C(master, sda=PIN_B0, scl=PIN_B1) 
....................  
.................... #endif 
....................  
....................  
....................  
.................... #include "mismov.h"  
.................... #ifndef _MISMOV_ 
.................... #define _MISMOV_ 
....................  
.................... #include "tarjeta.h" 
.................... #ifndef _TARJETA_ 
.................... #define _TARJETA_ 
....................  
.................... #include <18F4550.h> 
....................  
.................... #fuses USBDIV, CPUDIV1, PLL5, HSPLL, NOFCMEN, NOIESO, VREGEN, BORV21, BROWNOUT, NOPUT, WDT32768, NOWDT 
.................... #fuses MCLR, NOLPT1OSC, NOPBADEN, CCP2C1, NODEBUG, NOXINST, NOICPRT, NOLVP, STVREN, NOPROTECT, NOCPD 
.................... #fuses NOCPB, NOWRT, NOWRTD, WRTB, NOWRTC, NOEBTR, NOEBTRB 
....................  
.................... /*********************************************************** 
....................       EVITAMOS LA ZONA DE MEMORIA ASIGNADA AL MONITOR 
.................... ***********************************************************/ 
....................  
.................... #define LOADER_END   0x7FF 
.................... #define LOADER_SIZE   0x6FF 
....................  
.................... #build(reset=LOADER_END+1, interrupt=LOADER_END+9) 
.................... #org 0, LOADER_END {} 
.................... //#org 0x82A, 0x7FFF 
....................  
....................  
.................... /*********************************************************** 
....................            FUNCIONES PARA MOVER LOS MOTORES 
.................... MX_H() : Mueve el motor en sentido horario 
.................... MX_A() : Mueve el motor en sentido anti-horario 
.................... MX_P() : Para el motor 
.................... ***********************************************************/ 
....................  
.................... void M1_A(){ 
....................    output_high(PIN_A1); 
....................    output_high(PIN_D7); 
....................    output_low(PIN_D6); 
.................... } 
....................  
.................... void M1_H(){ 
....................    output_high(PIN_A1); 
....................    output_low(PIN_D7); 
....................    output_high(PIN_D6); 
.................... } 
....................  
.................... void M1_P(){ 
....................    output_high(PIN_A1); 
....................    output_low(PIN_D7); 
....................    output_low(PIN_D6); 
.................... } 
....................  
.................... void M2_A(){ 
....................    output_high(PIN_A0); 
....................    output_high(PIN_C2); 
....................    output_low(PIN_D5); 
.................... } 
....................  
.................... void M2_H(){ 
....................    output_high(PIN_A0); 
....................    output_low(PIN_C2); 
....................    output_high(PIN_D5); 
.................... } 
....................  
.................... void M2_P(){ 
....................    output_high(PIN_A0); 
....................    output_low(PIN_C2); 
....................    output_low(PIN_D5); 
.................... } 
....................  
.................... void M3_A(){ 
....................    output_high(PIN_A2); 
....................    output_low(PIN_B2); 
....................    output_high(PIN_E0); 
.................... } 
....................  
.................... void M3_H(){ 
....................    output_high(PIN_A2); 
....................    output_high(PIN_B2); 
....................    output_low(PIN_E0); 
.................... } 
....................  
.................... void M3_P(){ 
....................    output_high(PIN_A2); 
....................    output_low(PIN_B2); 
....................    output_low(PIN_E0); 
.................... } 
....................  
.................... void M4_A(){ 
....................    output_high(PIN_A3); 
....................    output_low(PIN_E2); 
....................    output_high(PIN_E1); 
.................... } 
....................  
.................... void M4_H(){ 
....................    output_high(PIN_A3); 
....................    output_high(PIN_E2); 
....................    output_low(PIN_E1); 
.................... } 
....................  
.................... void M4_P(){ 
....................    output_high(PIN_A3); 
....................    output_low(PIN_E2); 
....................    output_low(PIN_E1); 
.................... } 
....................  
....................  
.................... /*********************************************************** 
....................             MACRO PARA LEER EL PULSADOR P2 
.................... ***********************************************************/ 
....................  
.................... #define P2   (!input(PIN_B4)) 
....................  
.................... /*********************************************************** 
....................               MACROS PARA MANEJAR EL LED 
.................... ***********************************************************/ 
....................  
.................... #define led_on()   output_high(PIN_A5) 
.................... #define led_off()   output_low(PIN_A5) 
....................  
.................... /*********************************************************** 
....................            DEFINICION DE LAS E/S DIRECTAS 
.................... ***********************************************************/ 
....................  
.................... #define ES0   PIN_A4 
.................... #define ES1   PIN_B3 
.................... #define ES2   PIN_B5 
.................... #define ES3   PIN_B6 
.................... #define ES4   PIN_B7 
.................... #define ES5   PIN_C7 
.................... #define ES6   PIN_C6 
.................... #define ES7   PIN_C1 
.................... #define ES8   PIN_C0 
....................  
.................... /*********************************************************** 
....................         MACROS PARA LEER LOS SENSORES FIJOS INX 
.................... ***********************************************************/ 
....................  
.................... #define IN1      input(PIN_D0) 
.................... #define IN2      input(PIN_D1) 
.................... #define IN3      input(PIN_D2) 
.................... #define IN4      input(PIN_D3) 
.................... #define IN5      input(PIN_D4) 
.................... //IN6 ES UNA E/S CONFIGURABLE 
.................... //#define IN6      input(ES0) 
.................... //#define IN6      input(ES1) 
.................... // ... O CUALQUIER OTRA E/S DIRECTA 
....................  
.................... /*********************************************************** 
....................             DIRECTIVA PARA EL USO DEL I2C 
.................... ***********************************************************/ 
.................... #use I2C(master, sda=PIN_B0, scl=PIN_B1) 
....................  
.................... #endif 
....................  
....................  
....................  
.................... //#include "srf02.h" 
.................... #use delay (clock=48000000) 
*
085A:  CLRF   FEA
085C:  MOVLW  05
085E:  MOVWF  FE9
0860:  MOVF   FEF,W
0862:  BZ    0880
0864:  MOVLW  0F
0866:  MOVWF  01
0868:  CLRF   00
086A:  DECFSZ 00,F
086C:  BRA    086A
086E:  DECFSZ 01,F
0870:  BRA    0868
0872:  MOVLW  8F
0874:  MOVWF  00
0876:  DECFSZ 00,F
0878:  BRA    0876
087A:  NOP   
087C:  DECFSZ FEF,F
087E:  BRA    0864
0880:  RETURN 0
....................  
.................... void DELANTE(){ 
....................    M1_A(); 
....................    M2_A(); 
.................... } 
....................  
.................... void ATRAS(){ 
....................    M1_H(); 
....................    M2_H(); 
.................... } 
....................  
.................... void PARAR(){ 
....................    M1_P(); 
*
08A2:  BRA    0882
....................    M2_P(); 
08A4:  BRA    0892
08A6:  RETURN 0
.................... } 
....................  
.................... void PARAR_I(){ 
....................    M3_P(); 
....................    M4_P(); 
.................... } 
....................  
.................... void DISPARAR(){ 
....................    M3_H(); 
*
0852:  BRA    0832
....................    M4_H(); 
0854:  BRA    0842
0856:  GOTO   08D2 (RETURN)
.................... } 
....................  
.................... void RECOGER(){ 
....................    M3_A(); 
*
08C8:  BRA    08A8
....................    M4_A(); 
08CA:  BRA    08B8
08CC:  GOTO   08E2 (RETURN)
.................... } 
....................  
.................... void IMPACTO(){ 
....................    DISPARAR(); 
08D0:  BRA    0852
....................    delay_ms(100); 
08D2:  MOVLW  64
08D4:  MOVWF  05
08D6:  RCALL  085A
....................    PARAR(); 
08D8:  RCALL  08A2
....................    delay_ms(100); 
08DA:  MOVLW  64
08DC:  MOVWF  05
08DE:  RCALL  085A
....................    RECOGER(); 
08E0:  BRA    08C8
....................    delay_ms(200); 
08E2:  MOVLW  C8
08E4:  MOVWF  05
08E6:  RCALL  085A
....................    PARAR(); 
08E8:  RCALL  08A2
....................    delay_ms(100); 
08EA:  MOVLW  64
08EC:  MOVWF  05
08EE:  RCALL  085A
08F0:  GOTO   091A (RETURN)
.................... } 
....................  
....................  
.................... void DERECHA(long int t){ 
....................    PARAR(); 
....................    delay_ms(400); 
....................    M1_P(); 
....................    M2_H(); 
....................    delay_ms(t); 
....................    PARAR(); 
....................    delay_ms(250); 
.................... } 
....................  
.................... void IZQUIERDA(long int t){ 
....................    PARAR(); 
....................    delay_ms(400); 
....................    M1_H(); 
....................    M2_P(); 
....................    delay_ms(t); 
....................    PARAR(); 
....................    delay_ms(250); 
.................... } 
....................  
.................... /*int ULTRA_SONIDOS(int dist){ 
....................    set_tris_a(0x00); 
....................    set_tris_b(0x13); 
....................    set_tris_c(0x00); 
....................    set_tris_d(0x1F); 
....................    set_tris_e(0x00); 
....................     
....................    delay_ms(1); 
....................    if(srf_measure_cm() < dist)  
....................       return 1; 
....................    else 
....................       return 0; 
.................... }*/ 
....................  
.................... #endif 
....................  
....................  
.................... #use delay (clock=48000000)  
*
0808:  CLRF   FEA
080A:  MOVLW  06
080C:  MOVWF  FE9
080E:  MOVF   FEF,W
0810:  BZ    082E
0812:  MOVLW  0F
0814:  MOVWF  01
0816:  CLRF   00
0818:  DECFSZ 00,F
081A:  BRA    0818
081C:  DECFSZ 01,F
081E:  BRA    0816
0820:  MOVLW  8F
0822:  MOVWF  00
0824:  DECFSZ 00,F
0826:  BRA    0824
0828:  NOP   
082A:  DECFSZ FEF,F
082C:  BRA    0812
082E:  GOTO   090E (RETURN)
....................  
....................  
.................... void inicializarTimer0PWM(){  
....................    setup_timer_0(RTCC_INTERNAL|RTCC_DIV_2|RTCC_8_BIT);  
....................    enable_interrupts(INT_TIMER0);  
....................    enable_interrupts(GLOBAL);  
.................... }   
....................   
.................... void main(){  
*
08F4:  CLRF   FF8
08F6:  BCF    FD0.7
08F8:  MOVF   FC1,W
08FA:  ANDLW  C0
08FC:  IORLW  0F
08FE:  MOVWF  FC1
0900:  MOVLW  07
0902:  MOVWF  FB4
....................    //inicializarTimer0PWM();  
....................    //M1_A(); 
....................    //M2_A(); 
....................    delay_ms(500); 
0904:  MOVLW  02
0906:  MOVWF  05
0908:  MOVLW  FA
090A:  MOVWF  06
090C:  BRA    0808
090E:  DECFSZ 05,F
0910:  BRA    0908
....................    while(1){ 
....................        
....................       if(IN2 /*&& cont<2*/){ 
0912:  BSF    F95.1
0914:  BTFSS  F83.1
0916:  BRA    091A
....................          //delay_ms(500); 
....................          IMPACTO(); 
0918:  BRA    08D0
....................       } 
091A:  BRA    0912
....................       /*else if(IN2 && cont>2){ 
....................          M1_A(); 
....................          M2_A(); 
....................          cont=0; 
....................          delay_ms(500); 
....................       }*/ 
....................           
....................    }   
.................... } 
....................  
091C:  SLEEP 

Configuration Fuses:
   Word  1: 0E24   PLL5 CPUDIV1 USBDIV HSPLL NOFCMEN NOIESO
   Word  2: 1E3F   NOPUT BROWNOUT BORV21 VREGEN NOWDT WDT32768
   Word  3: 8100   CCP2C1 NOPBADEN NOLPT1OSC MCLR
   Word  4: 0081   STVREN NOLVP ICSP1 NOXINST NODEBUG
   Word  5: C00F   NOPROTECT NOCPB NOCPD
   Word  6: A00F   NOWRT NOWRTC WRTB NOWRTD
   Word  7: 400F   NOEBTR NOEBTRB
